target datalayout = "e-m:e-p270:32:32-p271:32:32-p272:64:64-i64:64-i128:128-f80:128-n8:16:32:64-S128"
target triple = "x86_64-pc-linux-gnu"

%struct._bacapp_info_value_t = type { ptr, ptr, ptr, ptr }
%struct._packet_info = type { ptr, ptr, i32, i32, %struct.nstime_t, %struct.nstime_t, %struct.nstime_t, i8, ptr, ptr, ptr, ptr, %struct._address, %struct._address, %struct._address, %struct._address, %struct._address, %struct._address, i32, ptr, i8, [3 x i8], %struct.anon, i32, i32, i32, i32, ptr, i8, ptr, ptr, i16, i16, i32, i32, i16, i32, i32, ptr, ptr, ptr, i8, i8, i16, i16, i16, i32, i16, i16, ptr, ptr, ptr, ptr, ptr, i32, i32 }
%struct.nstime_t = type { i64, i32 }
%struct._address = type { i32, i32, ptr, ptr }
%struct.anon = type { i8, [3 x i8] }

@.str.3953 = private unnamed_addr constant [6 x i8] c"Src: \00", align 1
@.str.3954 = private unnamed_addr constant [6 x i8] c"Dst: \00", align 1
@st_str_packets_by_service = internal global ptr @.str.3958, align 8
@st_node_packets_by_service = internal global i32 -1, align 4

; Function Attrs: null_pointer_is_valid sspstrong uwtable
define internal ptr @bacapp_get_address_label(ptr noundef %0, ptr noundef %1) #0 {
  %3 = alloca ptr, align 8
  %4 = alloca ptr, align 8
  %5 = alloca ptr, align 8
  %6 = alloca ptr, align 8
  store ptr %0, ptr %3, align 8
  store ptr %1, ptr %4, align 8
  call void @llvm.lifetime.start.p0(i64 8, ptr %5) #7
  call void @llvm.lifetime.start.p0(i64 8, ptr %6) #7
  %7 = load ptr, ptr %4, align 8
  %8 = call ptr @address_to_str(ptr noundef null, ptr noundef %7)
  store ptr %8, ptr %5, align 8
  %9 = load ptr, ptr %3, align 8
  %10 = load ptr, ptr %5, align 8
  %11 = call noalias ptr (ptr, ptr, ...) @wmem_strconcat(ptr noundef null, ptr noundef %9, ptr noundef %10, ptr noundef null)
  store ptr %11, ptr %6, align 8
  %12 = load ptr, ptr %5, align 8
  call void @wmem_free(ptr noundef null, ptr noundef %12)
  %13 = load ptr, ptr %6, align 8
  call void @llvm.lifetime.end.p0(i64 8, ptr %6) #7
  call void @llvm.lifetime.end.p0(i64 8, ptr %5) #7
  ret ptr %13
}

; Function Attrs: null_pointer_is_valid sspstrong uwtable
define internal i32 @bacapp_stats_tree_service(ptr noundef %0, ptr noundef %1, ptr noundef %2, ptr noundef %3, i32 noundef %4) #0 {
  %6 = alloca ptr, align 8
  %7 = alloca ptr, align 8
  %8 = alloca ptr, align 8
  %9 = alloca ptr, align 8
  %10 = alloca i32, align 4
  %11 = alloca i32, align 4
  %12 = alloca i32, align 4
  %13 = alloca i32, align 4
  %14 = alloca i32, align 4
  %15 = alloca ptr, align 8
  %16 = alloca ptr, align 8
  %17 = alloca ptr, align 8
  store ptr %0, ptr %6, align 8
  store ptr %1, ptr %7, align 8
  store ptr %2, ptr %8, align 8
  store ptr %3, ptr %9, align 8
  store i32 %4, ptr %10, align 4
  call void @llvm.lifetime.start.p0(i64 4, ptr %11) #7
  call void @llvm.lifetime.start.p0(i64 4, ptr %12) #7
  call void @llvm.lifetime.start.p0(i64 4, ptr %13) #7
  call void @llvm.lifetime.start.p0(i64 4, ptr %14) #7
  call void @llvm.lifetime.start.p0(i64 8, ptr %15) #7
  call void @llvm.lifetime.start.p0(i64 8, ptr %16) #7
  call void @llvm.lifetime.start.p0(i64 8, ptr %17) #7
  %18 = load ptr, ptr %9, align 8
  store ptr %18, ptr %17, align 8
  %19 = load ptr, ptr %7, align 8
  %20 = getelementptr inbounds nuw %struct._packet_info, ptr %19, i32 0, i32 16
  %21 = call ptr @bacapp_get_address_label(ptr noundef @.str.3953, ptr noundef %20)
  store ptr %21, ptr %16, align 8
  %22 = load ptr, ptr %7, align 8
  %23 = getelementptr inbounds nuw %struct._packet_info, ptr %22, i32 0, i32 17
  %24 = call ptr @bacapp_get_address_label(ptr noundef @.str.3954, ptr noundef %23)
  store ptr %24, ptr %15, align 8
  %25 = load ptr, ptr %6, align 8
  %26 = load ptr, ptr @st_str_packets_by_service, align 8
  %27 = call i32 @stats_tree_manip_node_int(i32 noundef 0, ptr noundef %25, ptr noundef %26, i32 noundef 0, i1 noundef zeroext true, i32 noundef 1)
  %28 = load ptr, ptr %17, align 8
  %29 = getelementptr inbounds nuw %struct._bacapp_info_value_t, ptr %28, i32 0, i32 0
  %30 = load ptr, ptr %29, align 8
  %31 = icmp ne ptr %30, null
  br i1 %31, label %32, label %65

32:                                               ; preds = %5
  %33 = load ptr, ptr %6, align 8
  %34 = load ptr, ptr %17, align 8
  %35 = getelementptr inbounds nuw %struct._bacapp_info_value_t, ptr %34, i32 0, i32 0
  %36 = load ptr, ptr %35, align 8
  %37 = load i32, ptr @st_node_packets_by_service, align 4
  %38 = call i32 @stats_tree_manip_node_int(i32 noundef 0, ptr noundef %33, ptr noundef %36, i32 noundef %37, i1 noundef zeroext true, i32 noundef 1)
  store i32 %38, ptr %11, align 4
  %39 = load ptr, ptr %6, align 8
  %40 = load ptr, ptr %16, align 8
  %41 = load i32, ptr %11, align 4
  %42 = call i32 @stats_tree_manip_node_int(i32 noundef 0, ptr noundef %39, ptr noundef %40, i32 noundef %41, i1 noundef zeroext true, i32 noundef 1)
  store i32 %42, ptr %12, align 4
  %43 = load ptr, ptr %6, align 8
  %44 = load ptr, ptr %15, align 8
  %45 = load i32, ptr %12, align 4
  %46 = call i32 @stats_tree_manip_node_int(i32 noundef 0, ptr noundef %43, ptr noundef %44, i32 noundef %45, i1 noundef zeroext true, i32 noundef 1)
  store i32 %46, ptr %13, align 4
  %47 = load ptr, ptr %17, align 8
  %48 = getelementptr inbounds nuw %struct._bacapp_info_value_t, ptr %47, i32 0, i32 3
  %49 = load ptr, ptr %48, align 8
  %50 = icmp ne ptr %49, null
  br i1 %50, label %51, label %64

51:                                               ; preds = %32
  %52 = load ptr, ptr %6, align 8
  %53 = load ptr, ptr %17, align 8
  %54 = getelementptr inbounds nuw %struct._bacapp_info_value_t, ptr %53, i32 0, i32 3
  %55 = load ptr, ptr %54, align 8
  %56 = load i32, ptr %13, align 4
  %57 = call i32 @stats_tree_manip_node_int(i32 noundef 0, ptr noundef %52, ptr noundef %55, i32 noundef %56, i1 noundef zeroext true, i32 noundef 1)
  store i32 %57, ptr %14, align 4
  %58 = load ptr, ptr %6, align 8
  %59 = load ptr, ptr %17, align 8
  %60 = getelementptr inbounds nuw %struct._bacapp_info_value_t, ptr %59, i32 0, i32 2
  %61 = load ptr, ptr %60, align 8
  %62 = load i32, ptr %14, align 4
  %63 = call i32 @stats_tree_manip_node_int(i32 noundef 0, ptr noundef %58, ptr noundef %61, i32 noundef %62, i1 noundef zeroext false, i32 noundef 1)
  br label %64

64:                                               ; preds = %51, %32
  br label %65

65:                                               ; preds = %64, %5
  %66 = load ptr, ptr %16, align 8
  call void @wmem_free(ptr noundef null, ptr noundef %66)
  %67 = load ptr, ptr %15, align 8
  call void @wmem_free(ptr noundef null, ptr noundef %67)
  call void @llvm.lifetime.end.p0(i64 8, ptr %17) #7
  call void @llvm.lifetime.end.p0(i64 8, ptr %16) #7
  call void @llvm.lifetime.end.p0(i64 8, ptr %15) #7
  call void @llvm.lifetime.end.p0(i64 4, ptr %14) #7
  call void @llvm.lifetime.end.p0(i64 4, ptr %13) #7
  call void @llvm.lifetime.end.p0(i64 4, ptr %12) #7
  call void @llvm.lifetime.end.p0(i64 4, ptr %11) #7
  ret i32 1
}