; Function Attrs: null_pointer_is_valid sspstrong uwtable
define internal noundef i32 @bacapp_stats_tree_service(ptr noundef %0, ptr noundef %1, ptr readnone captures(none) %2, ptr noundef readonly captures(none) %3, i32 %4) #0 {
  %6 = getelementptr inbounds nuw i8, ptr %1, i64 208
  %7 = tail call ptr @address_to_str(ptr noundef null, ptr noundef nonnull %6)
  %8 = tail call noalias ptr (ptr, ptr, ...) @wmem_strconcat(ptr noundef null, ptr noundef nonnull @.str.3953, ptr noundef %7, ptr noundef null)
  tail call void @wmem_free(ptr noundef null, ptr noundef %7)
  %9 = getelementptr inbounds nuw i8, ptr %1, i64 232
  %10 = tail call ptr @address_to_str(ptr noundef null, ptr noundef nonnull %9)
  %11 = tail call noalias ptr (ptr, ptr, ...) @wmem_strconcat(ptr noundef null, ptr noundef nonnull @.str.3954, ptr noundef %10, ptr noundef null)
  tail call void @wmem_free(ptr noundef null, ptr noundef %10)
  %12 = tail call i32 @stats_tree_manip_node_int(i32 noundef 0, ptr noundef %0, ptr noundef nonnull @.str.3958, i32 noundef 0, i1 noundef zeroext true, i32 noundef 1)
  %13 = load ptr, ptr %3, align 8
  %.not = icmp eq ptr %13, null
  br i1 %.not, label %26, label %14

14:                                               ; preds = %5
  %15 = load i32, ptr @st_node_packets_by_service, align 4
  %16 = tail call i32 @stats_tree_manip_node_int(i32 noundef 0, ptr noundef %0, ptr noundef nonnull %13, i32 noundef %15, i1 noundef zeroext true, i32 noundef 1)
  %17 = tail call i32 @stats_tree_manip_node_int(i32 noundef 0, ptr noundef %0, ptr noundef %8, i32 noundef %16, i1 noundef zeroext true, i32 noundef 1)
  %18 = tail call i32 @stats_tree_manip_node_int(i32 noundef 0, ptr noundef %0, ptr noundef %11, i32 noundef %17, i1 noundef zeroext true, i32 noundef 1)
  %19 = getelementptr inbounds nuw i8, ptr %3, i64 24
  %20 = load ptr, ptr %19, align 8
  %.not22 = icmp eq ptr %20, null
  br i1 %.not22, label %26, label %21

21:                                               ; preds = %14
  %22 = tail call i32 @stats_tree_manip_node_int(i32 noundef 0, ptr noundef %0, ptr noundef nonnull %20, i32 noundef %18, i1 noundef zeroext true, i32 noundef 1)
  %23 = getelementptr inbounds nuw i8, ptr %3, i64 16
  %24 = load ptr, ptr %23, align 8
  %25 = tail call i32 @stats_tree_manip_node_int(i32 noundef 0, ptr noundef %0, ptr noundef %24, i32 noundef %22, i1 noundef zeroext false, i32 noundef 1)
  br label %26

26:                                               ; preds = %14, %21, %5
  tail call void @wmem_free(ptr noundef null, ptr noundef %8)
  tail call void @wmem_free(ptr noundef null, ptr noundef %11)
  ret i32 1
}